target datalayout = "e-m:e-p270:32:32-p271:32:32-p272:64:64-i64:64-i128:128-f80:128-n8:16:32:64-S128"
target triple = "x86_64-pc-linux-gnu"

; Function Attrs: mustprogress nounwind uwtable
define internal noundef i32 @_ZL8jint_cmpPKvS0_(ptr noundef %0, ptr noundef %1) #1 {
  %3 = alloca ptr, align 8
  %4 = alloca ptr, align 8
  %5 = alloca i32, align 4
  %6 = alloca i32, align 4
  store ptr %0, ptr %3, align 8
  store ptr %1, ptr %4, align 8
  %7 = load ptr, ptr %3, align 8
  %8 = load i32, ptr %7, align 4
  store i32 %8, ptr %5, align 4
  %9 = load ptr, ptr %4, align 8
  %10 = load i32, ptr %9, align 4
  store i32 %10, ptr %6, align 4
  %11 = load i32, ptr %5, align 4
  %12 = load i32, ptr %6, align 4
  %13 = icmp sgt i32 %11, %12
  br i1 %13, label %14, label %15

14:                                               ; preds = %2
  br label %20

15:                                               ; preds = %2
  %16 = load i32, ptr %5, align 4
  %17 = load i32, ptr %6, align 4
  %18 = icmp slt i32 %16, %17
  %19 = select i1 %18, i32 -1, i32 0
  br label %20

20:                                               ; preds = %15, %14
  %21 = phi i32 [ 1, %14 ], [ %19, %15 ]
  ret i32 %21
}