; Function Attrs: mustprogress nofree norecurse nosync nounwind willreturn memory(argmem: read) uwtable
define internal noundef range(i32 -1, 2) i32 @_ZL8jint_cmpPKvS0_(ptr nocapture noundef readonly %0, ptr nocapture noundef readonly %1) #4 {
  %3 = load i32, ptr %0, align 4
  %4 = load i32, ptr %1, align 4
  %5 = icmp sgt i32 %3, %4
  %6 = icmp slt i32 %3, %4
  %7 = sext i1 %6 to i32
  %8 = select i1 %5, i32 1, i32 %7
  ret i32 %8
}